target datalayout = "e-m:e-p270:32:32-p271:32:32-p272:64:64-i64:64-i128:128-f80:128-n8:16:32:64-S128"
target triple = "x86_64-pc-linux-gnu"

%"struct.Luau::CodeGen::CodeAllocator" = type { ptr, ptr, ptr, ptr, ptr, %"class.std::vector", %"class.std::vector.0", i64, i64, ptr, ptr }
%"class.std::vector" = type { %"struct.std::_Vector_base" }
%"struct.std::_Vector_base" = type { %"struct.std::_Vector_base<unsigned char *, std::allocator<unsigned char *>>::_Vector_impl" }
%"struct.std::_Vector_base<unsigned char *, std::allocator<unsigned char *>>::_Vector_impl" = type { %"struct.std::_Vector_base<unsigned char *, std::allocator<unsigned char *>>::_Vector_impl_data" }
%"struct.std::_Vector_base<unsigned char *, std::allocator<unsigned char *>>::_Vector_impl_data" = type { ptr, ptr, ptr }
%"class.std::vector.0" = type { %"struct.std::_Vector_base.1" }
%"struct.std::_Vector_base.1" = type { %"struct.std::_Vector_base<void *, std::allocator<void *>>::_Vector_impl" }
%"struct.std::_Vector_base<void *, std::allocator<void *>>::_Vector_impl" = type { %"struct.std::_Vector_base<void *, std::allocator<void *>>::_Vector_impl_data" }
%"struct.std::_Vector_base<void *, std::allocator<void *>>::_Vector_impl_data" = type { ptr, ptr, ptr }

@_ZL9kPageSize = internal global i64 0, align 8

; Function Attrs: mustprogress nounwind uwtable
define internal void @_ZL13freePagesImplPhm(ptr noundef %0, i64 noundef %1) #4 {
  %3 = alloca ptr, align 8
  %4 = alloca i64, align 8
  store ptr %0, ptr %3, align 8, !tbaa !37
  store i64 %1, ptr %4, align 8, !tbaa !4
  %5 = load ptr, ptr %3, align 8, !tbaa !37
  %6 = load i64, ptr %4, align 8, !tbaa !4
  %7 = call i32 @munmap(ptr noundef %5, i64 noundef %6) #8
  %8 = icmp ne i32 %7, 0
  br i1 %8, label %9, label %10

9:                                                ; preds = %2
  br label %10

10:                                               ; preds = %9, %2
  ret void
}

; Function Attrs: mustprogress nounwind uwtable
define internal noundef i64 @_ZL15alignToPageSizem(i64 noundef %0) #4 {
  %2 = alloca i64, align 8
  store i64 %0, ptr %2, align 8, !tbaa !4
  %3 = load i64, ptr %2, align 8, !tbaa !4
  %4 = load i64, ptr @_ZL9kPageSize, align 8, !tbaa !4
  %5 = add i64 %3, %4
  %6 = sub i64 %5, 1
  %7 = load i64, ptr @_ZL9kPageSize, align 8, !tbaa !4
  %8 = sub i64 %7, 1
  %9 = xor i64 %8, -1
  %10 = and i64 %6, %9
  ret i64 %10
}

; Function Attrs: mustprogress uwtable
define dso_local void @_ZNK4Luau7CodeGen13CodeAllocator9freePagesEPhm(ptr noundef nonnull align 8 dereferenceable(120) %0, ptr noundef %1, i64 noundef %2) #3 align 2 {
  %4 = alloca ptr, align 8
  %5 = alloca ptr, align 8
  %6 = alloca i64, align 8
  %7 = alloca i64, align 8
  store ptr %0, ptr %4, align 8, !tbaa !8
  store ptr %1, ptr %5, align 8, !tbaa !37
  store i64 %2, ptr %6, align 8, !tbaa !4
  %8 = load ptr, ptr %4, align 8
  call void @llvm.lifetime.start.p0(i64 8, ptr %7) #8
  %9 = load i64, ptr %6, align 8, !tbaa !4
  %10 = call noundef i64 @_ZL15alignToPageSizem(i64 noundef %9)
  store i64 %10, ptr %7, align 8, !tbaa !4
  %11 = getelementptr inbounds nuw %"struct.Luau::CodeGen::CodeAllocator", ptr %8, i32 0, i32 9
  %12 = load ptr, ptr %11, align 8, !tbaa !31
  %13 = icmp ne ptr %12, null
  br i1 %13, label %14, label %21

14:                                               ; preds = %3
  %15 = getelementptr inbounds nuw %"struct.Luau::CodeGen::CodeAllocator", ptr %8, i32 0, i32 9
  %16 = load ptr, ptr %15, align 8, !tbaa !31
  %17 = getelementptr inbounds nuw %"struct.Luau::CodeGen::CodeAllocator", ptr %8, i32 0, i32 10
  %18 = load ptr, ptr %17, align 8, !tbaa !32
  %19 = load ptr, ptr %5, align 8, !tbaa !37
  %20 = load i64, ptr %7, align 8, !tbaa !4
  call void %16(ptr noundef %18, ptr noundef %19, i64 noundef %20, ptr noundef null, i64 noundef 0)
  br label %21

21:                                               ; preds = %14, %3
  %22 = load ptr, ptr %5, align 8, !tbaa !37
  %23 = load i64, ptr %7, align 8, !tbaa !4
  call void @_ZL13freePagesImplPhm(ptr noundef %22, i64 noundef %23)
  call void @llvm.lifetime.end.p0(i64 8, ptr %7) #8
  ret void
}