; Function Attrs: mustprogress uwtable
define dso_local void @_ZNK4Luau7CodeGen13CodeAllocator9freePagesEPhm(ptr noundef nonnull readonly align 8 captures(none) dereferenceable(120) %0, ptr noundef %1, i64 noundef %2) local_unnamed_addr #6 align 2 {
  %4 = load i64, ptr @_ZL9kPageSize, align 8, !tbaa !34
  %5 = add i64 %2, -1
  %6 = add i64 %5, %4
  %7 = sub i64 0, %4
  %8 = and i64 %6, %7
  %9 = getelementptr inbounds nuw i8, ptr %0, i64 104
  %10 = load ptr, ptr %9, align 8, !tbaa !22
  %.not = icmp eq ptr %10, null
  br i1 %.not, label %14, label %11

11:                                               ; preds = %3
  %12 = getelementptr inbounds nuw i8, ptr %0, i64 112
  %13 = load ptr, ptr %12, align 8, !tbaa !23
  tail call void %10(ptr noundef %13, ptr noundef %1, i64 noundef %8, ptr noundef null, i64 noundef 0)
  br label %14

14:                                               ; preds = %11, %3
  %15 = tail call i32 @munmap(ptr noundef %1, i64 noundef %8) #8
  ret void
}